target datalayout = "e-m:e-p270:32:32-p271:32:32-p272:64:64-i64:64-i128:128-f80:128-n8:16:32:64-S128"
target triple = "x86_64-pc-linux-gnu"

%"class.std::basic_filebuf" = type { %"class.std::basic_streambuf", %union.pthread_mutex_t, %"class.std::__basic_file", i32, %struct.__mbstate_t, %struct.__mbstate_t, %struct.__mbstate_t, ptr, i64, i8, i8, i8, i8, ptr, ptr, i8, ptr, ptr, i64, ptr, ptr }
%"class.std::basic_streambuf" = type { ptr, ptr, ptr, ptr, ptr, ptr, ptr, %"class.std::locale" }
%"class.std::locale" = type { ptr }
%union.pthread_mutex_t = type { %struct.__pthread_mutex_s }
%struct.__pthread_mutex_s = type { i32, i32, i32, i32, i32, i16, i16, %struct.__pthread_internal_list }
%struct.__pthread_internal_list = type { ptr, ptr }
%"class.std::__basic_file" = type <{ ptr, i8, [7 x i8] }>
%struct.__mbstate_t = type { i32, %union.anon.0 }
%union.anon.0 = type { i32 }
%"class.std::basic_ios" = type { %"class.std::ios_base", ptr, i8, i8, ptr, ptr, ptr, ptr }
%"class.std::ios_base" = type { ptr, i64, i64, i32, i32, i32, ptr, %"struct.std::ios_base::_Words", [8 x %"struct.std::ios_base::_Words"], i32, ptr, %"class.std::locale" }
%"struct.std::ios_base::_Words" = type { ptr, i64 }
%"class.cv::BitStream" = type <{ %"class.std::basic_ofstream", %"class.std::vector.4", ptr, ptr, ptr, i64, i8, [7 x i8] }>
%"class.std::basic_ofstream" = type { %"class.std::basic_ostream.base", %"class.std::basic_filebuf", %"class.std::basic_ios" }
%"class.std::basic_ostream.base" = type { ptr }
%"class.std::vector.4" = type { %"struct.std::_Vector_base.5" }
%"struct.std::_Vector_base.5" = type { %"struct.std::_Vector_base<unsigned char, std::allocator<unsigned char>>::_Vector_impl" }
%"struct.std::_Vector_base<unsigned char, std::allocator<unsigned char>>::_Vector_impl" = type { %"struct.std::_Vector_base<unsigned char, std::allocator<unsigned char>>::_Vector_impl_data" }
%"struct.std::_Vector_base<unsigned char, std::allocator<unsigned char>>::_Vector_impl_data" = type { ptr, ptr, ptr }

; Function Attrs: mustprogress uwtable
define hidden void @_ZN2cv9BitStream10writeBlockEv(ptr noundef nonnull align 8 dereferenceable(569) %0) #6 align 2 {
  %2 = alloca ptr, align 8
  %3 = alloca i64, align 8
  store ptr %0, ptr %2, align 8, !tbaa !142
  %4 = load ptr, ptr %2, align 8
  call void @llvm.lifetime.start.p0(i64 8, ptr %3) #3
  %5 = getelementptr inbounds nuw %"class.cv::BitStream", ptr %4, i32 0, i32 4
  %6 = load ptr, ptr %5, align 8, !tbaa !154
  %7 = getelementptr inbounds nuw %"class.cv::BitStream", ptr %4, i32 0, i32 2
  %8 = load ptr, ptr %7, align 8, !tbaa !144
  %9 = ptrtoint ptr %6 to i64
  %10 = ptrtoint ptr %8 to i64
  %11 = sub i64 %9, %10
  store i64 %11, ptr %3, align 8, !tbaa !36
  %12 = load i64, ptr %3, align 8, !tbaa !36
  %13 = icmp sgt i64 %12, 0
  br i1 %13, label %14, label %20

14:                                               ; preds = %1
  %15 = getelementptr inbounds nuw %"class.cv::BitStream", ptr %4, i32 0, i32 0
  %16 = getelementptr inbounds nuw %"class.cv::BitStream", ptr %4, i32 0, i32 2
  %17 = load ptr, ptr %16, align 8, !tbaa !144
  %18 = load i64, ptr %3, align 8, !tbaa !36
  %19 = call noundef nonnull align 8 dereferenceable(8) ptr @_ZNSo5writeEPKcl(ptr noundef nonnull align 8 dereferenceable(8) %15, ptr noundef %17, i64 noundef %18)
  br label %20

20:                                               ; preds = %14, %1
  %21 = load i64, ptr %3, align 8, !tbaa !36
  %22 = getelementptr inbounds nuw %"class.cv::BitStream", ptr %4, i32 0, i32 5
  %23 = load i64, ptr %22, align 8, !tbaa !155
  %24 = add i64 %23, %21
  store i64 %24, ptr %22, align 8, !tbaa !155
  %25 = getelementptr inbounds nuw %"class.cv::BitStream", ptr %4, i32 0, i32 2
  %26 = load ptr, ptr %25, align 8, !tbaa !144
  %27 = getelementptr inbounds nuw %"class.cv::BitStream", ptr %4, i32 0, i32 4
  store ptr %26, ptr %27, align 8, !tbaa !154
  call void @llvm.lifetime.end.p0(i64 8, ptr %3) #3
  ret void
}

; Function Attrs: mustprogress uwtable
define hidden void @_ZN2cv9BitStream4jputEj(ptr noundef nonnull align 8 dereferenceable(569) %0, i32 noundef %1) #6 align 2 {
  %3 = alloca ptr, align 8
  %4 = alloca i32, align 4
  %5 = alloca i8, align 1
  %6 = alloca ptr, align 8
  store ptr %0, ptr %3, align 8, !tbaa !142
  store i32 %1, ptr %4, align 4, !tbaa !3
  %7 = load ptr, ptr %3, align 8
  call void @llvm.lifetime.start.p0(i64 1, ptr %5) #3
  call void @llvm.lifetime.start.p0(i64 8, ptr %6) #3
  %8 = getelementptr inbounds nuw %"class.cv::BitStream", ptr %7, i32 0, i32 4
  %9 = load ptr, ptr %8, align 8, !tbaa !154
  store ptr %9, ptr %6, align 8, !tbaa !35
  %10 = load i32, ptr %4, align 4, !tbaa !3
  %11 = lshr i32 %10, 24
  %12 = trunc i32 %11 to i8
  store i8 %12, ptr %5, align 1, !tbaa !7
  %13 = load i8, ptr %5, align 1, !tbaa !7
  %14 = load ptr, ptr %6, align 8, !tbaa !35
  %15 = getelementptr inbounds nuw i8, ptr %14, i32 1
  store ptr %15, ptr %6, align 8, !tbaa !35
  store i8 %13, ptr %14, align 1, !tbaa !7
  %16 = load i8, ptr %5, align 1, !tbaa !7
  %17 = zext i8 %16 to i32
  %18 = icmp eq i32 %17, 255
  br i1 %18, label %19, label %22

19:                                               ; preds = %2
  %20 = load ptr, ptr %6, align 8, !tbaa !35
  %21 = getelementptr inbounds nuw i8, ptr %20, i32 1
  store ptr %21, ptr %6, align 8, !tbaa !35
  store i8 0, ptr %20, align 1, !tbaa !7
  br label %22

22:                                               ; preds = %19, %2
  %23 = load i32, ptr %4, align 4, !tbaa !3
  %24 = lshr i32 %23, 16
  %25 = trunc i32 %24 to i8
  store i8 %25, ptr %5, align 1, !tbaa !7
  %26 = load i8, ptr %5, align 1, !tbaa !7
  %27 = load ptr, ptr %6, align 8, !tbaa !35
  %28 = getelementptr inbounds nuw i8, ptr %27, i32 1
  store ptr %28, ptr %6, align 8, !tbaa !35
  store i8 %26, ptr %27, align 1, !tbaa !7
  %29 = load i8, ptr %5, align 1, !tbaa !7
  %30 = zext i8 %29 to i32
  %31 = icmp eq i32 %30, 255
  br i1 %31, label %32, label %35

32:                                               ; preds = %22
  %33 = load ptr, ptr %6, align 8, !tbaa !35
  %34 = getelementptr inbounds nuw i8, ptr %33, i32 1
  store ptr %34, ptr %6, align 8, !tbaa !35
  store i8 0, ptr %33, align 1, !tbaa !7
  br label %35

35:                                               ; preds = %32, %22
  %36 = load i32, ptr %4, align 4, !tbaa !3
  %37 = lshr i32 %36, 8
  %38 = trunc i32 %37 to i8
  store i8 %38, ptr %5, align 1, !tbaa !7
  %39 = load i8, ptr %5, align 1, !tbaa !7
  %40 = load ptr, ptr %6, align 8, !tbaa !35
  %41 = getelementptr inbounds nuw i8, ptr %40, i32 1
  store ptr %41, ptr %6, align 8, !tbaa !35
  store i8 %39, ptr %40, align 1, !tbaa !7
  %42 = load i8, ptr %5, align 1, !tbaa !7
  %43 = zext i8 %42 to i32
  %44 = icmp eq i32 %43, 255
  br i1 %44, label %45, label %48

45:                                               ; preds = %35
  %46 = load ptr, ptr %6, align 8, !tbaa !35
  %47 = getelementptr inbounds nuw i8, ptr %46, i32 1
  store ptr %47, ptr %6, align 8, !tbaa !35
  store i8 0, ptr %46, align 1, !tbaa !7
  br label %48

48:                                               ; preds = %45, %35
  %49 = load i32, ptr %4, align 4, !tbaa !3
  %50 = trunc i32 %49 to i8
  store i8 %50, ptr %5, align 1, !tbaa !7
  %51 = load i8, ptr %5, align 1, !tbaa !7
  %52 = load ptr, ptr %6, align 8, !tbaa !35
  %53 = getelementptr inbounds nuw i8, ptr %52, i32 1
  store ptr %53, ptr %6, align 8, !tbaa !35
  store i8 %51, ptr %52, align 1, !tbaa !7
  %54 = load i8, ptr %5, align 1, !tbaa !7
  %55 = zext i8 %54 to i32
  %56 = icmp eq i32 %55, 255
  br i1 %56, label %57, label %60

57:                                               ; preds = %48
  %58 = load ptr, ptr %6, align 8, !tbaa !35
  %59 = getelementptr inbounds nuw i8, ptr %58, i32 1
  store ptr %59, ptr %6, align 8, !tbaa !35
  store i8 0, ptr %58, align 1, !tbaa !7
  br label %60

60:                                               ; preds = %57, %48
  %61 = load ptr, ptr %6, align 8, !tbaa !35
  %62 = getelementptr inbounds nuw %"class.cv::BitStream", ptr %7, i32 0, i32 4
  store ptr %61, ptr %62, align 8, !tbaa !154
  %63 = getelementptr inbounds nuw %"class.cv::BitStream", ptr %7, i32 0, i32 4
  %64 = load ptr, ptr %63, align 8, !tbaa !154
  %65 = getelementptr inbounds nuw %"class.cv::BitStream", ptr %7, i32 0, i32 3
  %66 = load ptr, ptr %65, align 8, !tbaa !152
  %67 = icmp uge ptr %64, %66
  br i1 %67, label %68, label %69

68:                                               ; preds = %60
  call void @_ZN2cv9BitStream10writeBlockEv(ptr noundef nonnull align 8 dereferenceable(569) %7)
  br label %69

69:                                               ; preds = %68, %60
  call void @llvm.lifetime.end.p0(i64 8, ptr %6) #3
  call void @llvm.lifetime.end.p0(i64 1, ptr %5) #3
  ret void
}