; Function Attrs: mustprogress uwtable
define hidden void @_ZN2cv9BitStream4jputEj(ptr noundef nonnull align 8 dereferenceable(569) %0, i32 noundef %1) local_unnamed_addr #4 align 2 {
  %3 = getelementptr inbounds nuw i8, ptr %0, i64 552
  %4 = load ptr, ptr %3, align 8, !tbaa !133
  %5 = lshr i32 %1, 24
  %6 = trunc nuw i32 %5 to i8
  %7 = getelementptr inbounds nuw i8, ptr %4, i64 1
  store i8 %6, ptr %4, align 1, !tbaa !27
  %8 = icmp eq i32 %5, 255
  br i1 %8, label %9, label %11

9:                                                ; preds = %2
  %10 = getelementptr inbounds nuw i8, ptr %4, i64 2
  store i8 0, ptr %7, align 1, !tbaa !27
  br label %11

11:                                               ; preds = %9, %2
  %.0 = phi ptr [ %10, %9 ], [ %7, %2 ]
  %12 = lshr i32 %1, 16
  %13 = trunc i32 %12 to i8
  %14 = getelementptr inbounds nuw i8, ptr %.0, i64 1
  store i8 %13, ptr %.0, align 1, !tbaa !27
  %15 = and i32 %1, 16711680
  %16 = icmp eq i32 %15, 16711680
  br i1 %16, label %17, label %19

17:                                               ; preds = %11
  %18 = getelementptr inbounds nuw i8, ptr %.0, i64 2
  store i8 0, ptr %14, align 1, !tbaa !27
  br label %19

19:                                               ; preds = %17, %11
  %.1 = phi ptr [ %18, %17 ], [ %14, %11 ]
  %20 = lshr i32 %1, 8
  %21 = trunc i32 %20 to i8
  %22 = getelementptr inbounds nuw i8, ptr %.1, i64 1
  store i8 %21, ptr %.1, align 1, !tbaa !27
  %23 = and i32 %1, 65280
  %24 = icmp eq i32 %23, 65280
  br i1 %24, label %25, label %27

25:                                               ; preds = %19
  %26 = getelementptr inbounds nuw i8, ptr %.1, i64 2
  store i8 0, ptr %22, align 1, !tbaa !27
  br label %27

27:                                               ; preds = %25, %19
  %.2 = phi ptr [ %26, %25 ], [ %22, %19 ]
  %28 = trunc i32 %1 to i8
  %29 = getelementptr inbounds nuw i8, ptr %.2, i64 1
  store i8 %28, ptr %.2, align 1, !tbaa !27
  %30 = and i32 %1, 255
  %31 = icmp eq i32 %30, 255
  br i1 %31, label %32, label %34

32:                                               ; preds = %27
  %33 = getelementptr inbounds nuw i8, ptr %.2, i64 2
  store i8 0, ptr %29, align 1, !tbaa !27
  br label %34

34:                                               ; preds = %32, %27
  %.3 = phi ptr [ %33, %32 ], [ %29, %27 ]
  store ptr %.3, ptr %3, align 8, !tbaa !133
  %35 = getelementptr inbounds nuw i8, ptr %0, i64 544
  %36 = load ptr, ptr %35, align 8, !tbaa !130
  %.not = icmp ult ptr %.3, %36
  br i1 %.not, label %50, label %37

37:                                               ; preds = %34
  %38 = getelementptr inbounds nuw i8, ptr %0, i64 536
  %39 = load ptr, ptr %38, align 8, !tbaa !123
  %40 = ptrtoint ptr %.3 to i64
  %41 = ptrtoint ptr %39 to i64
  %42 = sub i64 %40, %41
  %43 = icmp sgt i64 %42, 0
  br i1 %43, label %44, label %_ZN2cv9BitStream10writeBlockEv.exit

44:                                               ; preds = %37
  %45 = tail call noundef nonnull align 8 dereferenceable(8) ptr @_ZNSo5writeEPKcl(ptr noundef nonnull align 8 dereferenceable(569) %0, ptr noundef %39, i64 noundef %42)
  %.pre.i = load ptr, ptr %38, align 8, !tbaa !123
  br label %_ZN2cv9BitStream10writeBlockEv.exit

_ZN2cv9BitStream10writeBlockEv.exit:              ; preds = %37, %44
  %46 = phi ptr [ %.pre.i, %44 ], [ %39, %37 ]
  %47 = getelementptr inbounds nuw i8, ptr %0, i64 560
  %48 = load i64, ptr %47, align 8, !tbaa !134
  %49 = add i64 %48, %42
  store i64 %49, ptr %47, align 8, !tbaa !134
  store ptr %46, ptr %3, align 8, !tbaa !133
  br label %50

50:                                               ; preds = %_ZN2cv9BitStream10writeBlockEv.exit, %34
  ret void
}